; Function Attrs: nounwind uwtable
define hidden nonnull ptr @luaO_pushfstring(ptr noundef %0, ptr noundef %1, ...) local_unnamed_addr #3 {
  %3 = alloca [1 x %struct.__va_list_tag], align 16
  call void @llvm.lifetime.start.p0(i64 24, ptr nonnull %3) #18
  call void @llvm.va_start.p0(ptr nonnull %3)
  %4 = call ptr @luaO_pushvfstring(ptr noundef %0, ptr noundef %1, ptr noundef nonnull %3)
  call void @llvm.va_end.p0(ptr nonnull %3)
  %5 = icmp eq ptr %4, null
  br i1 %5, label %6, label %7

6:                                                ; preds = %2
  call void @luaD_throw(ptr noundef %0, i32 noundef 4) #20
  unreachable

7:                                                ; preds = %2
  call void @llvm.lifetime.end.p0(i64 24, ptr nonnull %3) #18
  ret ptr %4
}